target datalayout = "e-m:e-p270:32:32-p271:32:32-p272:64:64-i64:64-i128:128-f80:128-n8:16:32:64-S128"
target triple = "x86_64-pc-linux-gnu"

%"struct.duckdb_zstd::ZSTD_frameHeader" = type { i64, i64, i32, i32, i32, i32, i32, i32, i32 }
%"struct.duckdb_zstd::ZSTD_frameSizeInfo" = type { i64, i64, i64 }
%"struct.duckdb_zstd::blockProperties_t" = type { i32, i32, i32 }

; Function Attrs: inlinehint mustprogress nounwind uwtable
define internal noundef i32 @_ZN11duckdb_zstdL10MEM_swap32Ej(i32 noundef %0) #7 {
  %2 = alloca i32, align 4
  store i32 %0, ptr %2, align 4, !tbaa !54
  %3 = load i32, ptr %2, align 4, !tbaa !54
  %4 = call i32 @llvm.bswap.i32(i32 %3)
  ret i32 %4
}

; Function Attrs: inlinehint mustprogress nounwind uwtable
define internal noundef i32 @_ZN11duckdb_zstdL10MEM_read32EPKv(ptr noundef %0) #7 {
  %2 = alloca ptr, align 8
  store ptr %0, ptr %2, align 8, !tbaa !33
  %3 = load ptr, ptr %2, align 8, !tbaa !33
  %4 = load i32, ptr %3, align 1, !tbaa !54
  ret i32 %4
}

; Function Attrs: inlinehint mustprogress nounwind uwtable
define internal noundef i32 @_ZN11duckdb_zstdL18MEM_isLittleEndianEv() #7 {
  ret i32 1
}

; Function Attrs: mustprogress nounwind uwtable
define internal void @_ZN11duckdb_zstdL23ZSTD_errorFrameSizeInfoEm(ptr dead_on_unwind noalias writable sret(%"struct.duckdb_zstd::ZSTD_frameSizeInfo") align 8 %0, i64 noundef %1) #2 {
  %3 = alloca i64, align 8
  store i64 %1, ptr %3, align 8, !tbaa !34
  %4 = load i64, ptr %3, align 8, !tbaa !34
  %5 = getelementptr inbounds nuw %"struct.duckdb_zstd::ZSTD_frameSizeInfo", ptr %0, i32 0, i32 1
  store i64 %4, ptr %5, align 8, !tbaa !69
  %6 = getelementptr inbounds nuw %"struct.duckdb_zstd::ZSTD_frameSizeInfo", ptr %0, i32 0, i32 2
  store i64 -2, ptr %6, align 8, !tbaa !71
  ret void
}

; Function Attrs: mustprogress nounwind uwtable
define internal noundef i32 @_ZN11duckdb_zstdL11ERR_isErrorEm(i64 noundef %0) #2 {
  %2 = alloca i64, align 8
  store i64 %0, ptr %2, align 8, !tbaa !34
  %3 = load i64, ptr %2, align 8, !tbaa !34
  %4 = icmp ugt i64 %3, -120
  %5 = zext i1 %4 to i32
  ret i32 %5
}

; Function Attrs: mustprogress uwtable
define internal noundef i64 @_ZN11duckdb_zstdL22readSkippableFrameSizeEPKvm(ptr noundef %0, i64 noundef %1) #0 {
  %3 = alloca i64, align 8
  %4 = alloca ptr, align 8
  %5 = alloca i64, align 8
  %6 = alloca i64, align 8
  %7 = alloca i32, align 4
  %8 = alloca i32, align 4
  %9 = alloca i64, align 8
  store ptr %0, ptr %4, align 8, !tbaa !33
  store i64 %1, ptr %5, align 8, !tbaa !34
  call void @llvm.lifetime.start.p0(i64 8, ptr %6) #12
  store i64 8, ptr %6, align 8, !tbaa !34
  call void @llvm.lifetime.start.p0(i64 4, ptr %7) #12
  br label %10

10:                                               ; preds = %2
  %11 = load i64, ptr %5, align 8, !tbaa !34
  %12 = icmp ult i64 %11, 8
  br i1 %12, label %13, label %26

13:                                               ; preds = %10
  br label %14

14:                                               ; preds = %13
  br label %15

15:                                               ; preds = %14
  br label %16

16:                                               ; preds = %15
  br label %17

17:                                               ; preds = %16
  br label %18

18:                                               ; preds = %17
  br label %19

19:                                               ; preds = %18
  br label %20

20:                                               ; preds = %19
  br label %21

21:                                               ; preds = %20
  br label %22

22:                                               ; preds = %21
  br label %23

23:                                               ; preds = %22
  br label %24

24:                                               ; preds = %23
  br label %25

25:                                               ; preds = %24
  store i64 -72, ptr %3, align 8
  store i32 1, ptr %8, align 4
  br label %78

26:                                               ; preds = %10
  br label %27

27:                                               ; preds = %26
  br label %28

28:                                               ; preds = %27
  %29 = load ptr, ptr %4, align 8, !tbaa !33
  %30 = getelementptr inbounds i8, ptr %29, i64 4
  %31 = call noundef i32 @_ZN11duckdb_zstdL12MEM_readLE32EPKv(ptr noundef %30)
  store i32 %31, ptr %7, align 4, !tbaa !54
  br label %32

32:                                               ; preds = %28
  %33 = load i32, ptr %7, align 4, !tbaa !54
  %34 = add i32 %33, 8
  %35 = load i32, ptr %7, align 4, !tbaa !54
  %36 = icmp ult i32 %34, %35
  br i1 %36, label %37, label %50

37:                                               ; preds = %32
  br label %38

38:                                               ; preds = %37
  br label %39

39:                                               ; preds = %38
  br label %40

40:                                               ; preds = %39
  br label %41

41:                                               ; preds = %40
  br label %42

42:                                               ; preds = %41
  br label %43

43:                                               ; preds = %42
  br label %44

44:                                               ; preds = %43
  br label %45

45:                                               ; preds = %44
  br label %46

46:                                               ; preds = %45
  br label %47

47:                                               ; preds = %46
  br label %48

48:                                               ; preds = %47
  br label %49

49:                                               ; preds = %48
  store i64 -14, ptr %3, align 8
  store i32 1, ptr %8, align 4
  br label %78

50:                                               ; preds = %32
  br label %51

51:                                               ; preds = %50
  br label %52

52:                                               ; preds = %51
  call void @llvm.lifetime.start.p0(i64 8, ptr %9) #12
  %53 = load i32, ptr %7, align 4, !tbaa !54
  %54 = zext i32 %53 to i64
  %55 = add i64 8, %54
  store i64 %55, ptr %9, align 8, !tbaa !34
  br label %56

56:                                               ; preds = %52
  %57 = load i64, ptr %9, align 8, !tbaa !34
  %58 = load i64, ptr %5, align 8, !tbaa !34
  %59 = icmp ugt i64 %57, %58
  br i1 %59, label %60, label %73

60:                                               ; preds = %56
  br label %61

61:                                               ; preds = %60
  br label %62

62:                                               ; preds = %61
  br label %63

63:                                               ; preds = %62
  br label %64

64:                                               ; preds = %63
  br label %65

65:                                               ; preds = %64
  br label %66

66:                                               ; preds = %65
  br label %67

67:                                               ; preds = %66
  br label %68

68:                                               ; preds = %67
  br label %69

69:                                               ; preds = %68
  br label %70

70:                                               ; preds = %69
  br label %71

71:                                               ; preds = %70
  br label %72

72:                                               ; preds = %71
  store i64 -72, ptr %3, align 8
  store i32 1, ptr %8, align 4
  br label %77

73:                                               ; preds = %56
  br label %74

74:                                               ; preds = %73
  br label %75

75:                                               ; preds = %74
  %76 = load i64, ptr %9, align 8, !tbaa !34
  store i64 %76, ptr %3, align 8
  store i32 1, ptr %8, align 4
  br label %77

77:                                               ; preds = %75, %72
  call void @llvm.lifetime.end.p0(i64 8, ptr %9) #12
  br label %78

78:                                               ; preds = %77, %49, %25
  call void @llvm.lifetime.end.p0(i64 4, ptr %7) #12
  call void @llvm.lifetime.end.p0(i64 8, ptr %6) #12
  %79 = load i64, ptr %3, align 8
  ret i64 %79
}

; Function Attrs: inlinehint mustprogress uwtable
define internal noundef i32 @_ZN11duckdb_zstdL12MEM_readLE32EPKv(ptr noundef %0) #5 {
  %2 = alloca i32, align 4
  %3 = alloca ptr, align 8
  store ptr %0, ptr %3, align 8, !tbaa !33
  %4 = call noundef i32 @_ZN11duckdb_zstdL18MEM_isLittleEndianEv()
  %5 = icmp ne i32 %4, 0
  br i1 %5, label %6, label %9

6:                                                ; preds = %1
  %7 = load ptr, ptr %3, align 8, !tbaa !33
  %8 = call noundef i32 @_ZN11duckdb_zstdL10MEM_read32EPKv(ptr noundef %7)
  store i32 %8, ptr %2, align 4
  br label %13

9:                                                ; preds = %1
  %10 = load ptr, ptr %3, align 8, !tbaa !33
  %11 = call noundef i32 @_ZN11duckdb_zstdL10MEM_read32EPKv(ptr noundef %10)
  %12 = call noundef i32 @_ZN11duckdb_zstdL10MEM_swap32Ej(i32 noundef %11)
  store i32 %12, ptr %2, align 4
  br label %13

13:                                               ; preds = %9, %6
  %14 = load i32, ptr %2, align 4
  ret i32 %14
}

; Function Attrs: mustprogress uwtable
define internal void @_ZN11duckdb_zstdL22ZSTD_findFrameSizeInfoEPKvmNS_13ZSTD_format_eE(ptr dead_on_unwind noalias writable sret(%"struct.duckdb_zstd::ZSTD_frameSizeInfo") align 8 %0, ptr noundef %1, i64 noundef %2, i32 noundef %3) #0 {
  %5 = alloca ptr, align 8
  %6 = alloca i64, align 8
  %7 = alloca i32, align 4
  %8 = alloca %"struct.duckdb_zstd::ZSTD_frameSizeInfo", align 8
  %9 = alloca i32, align 4
  %10 = alloca ptr, align 8
  %11 = alloca ptr, align 8
  %12 = alloca i64, align 8
  %13 = alloca i64, align 8
  %14 = alloca %"struct.duckdb_zstd::ZSTD_frameHeader", align 8
  %15 = alloca i64, align 8
  %16 = alloca %"struct.duckdb_zstd::blockProperties_t", align 4
  %17 = alloca i64, align 8
  store ptr %1, ptr %5, align 8, !tbaa !33
  store i64 %2, ptr %6, align 8, !tbaa !34
  store i32 %3, ptr %7, align 4, !tbaa !55
  call void @llvm.lifetime.start.p0(i64 24, ptr %8) #12
  call void @llvm.memset.p0.i64(ptr align 8 %8, i8 0, i64 24, i1 false)
  %18 = load i32, ptr %7, align 4, !tbaa !55
  %19 = icmp eq i32 %18, 0
  br i1 %19, label %20, label %33

20:                                               ; preds = %4
  %21 = load i64, ptr %6, align 8, !tbaa !34
  %22 = icmp uge i64 %21, 8
  br i1 %22, label %23, label %33

23:                                               ; preds = %20
  %24 = load ptr, ptr %5, align 8, !tbaa !33
  %25 = call noundef i32 @_ZN11duckdb_zstdL12MEM_readLE32EPKv(ptr noundef %24)
  %26 = and i32 %25, -16
  %27 = icmp eq i32 %26, 407710288
  br i1 %27, label %28, label %33

28:                                               ; preds = %23
  %29 = load ptr, ptr %5, align 8, !tbaa !33
  %30 = load i64, ptr %6, align 8, !tbaa !34
  %31 = call noundef i64 @_ZN11duckdb_zstdL22readSkippableFrameSizeEPKvm(ptr noundef %29, i64 noundef %30)
  %32 = getelementptr inbounds nuw %"struct.duckdb_zstd::ZSTD_frameSizeInfo", ptr %8, i32 0, i32 1
  store i64 %31, ptr %32, align 8, !tbaa !69
  call void @llvm.memcpy.p0.p0.i64(ptr align 8 %0, ptr align 8 %8, i64 24, i1 false), !tbaa.struct !73
  store i32 1, ptr %9, align 4
  br label %135

33:                                               ; preds = %23, %20, %4
  call void @llvm.lifetime.start.p0(i64 8, ptr %10) #12
  %34 = load ptr, ptr %5, align 8, !tbaa !33
  store ptr %34, ptr %10, align 8, !tbaa !57
  call void @llvm.lifetime.start.p0(i64 8, ptr %11) #12
  %35 = load ptr, ptr %10, align 8, !tbaa !57
  store ptr %35, ptr %11, align 8, !tbaa !57
  call void @llvm.lifetime.start.p0(i64 8, ptr %12) #12
  %36 = load i64, ptr %6, align 8, !tbaa !34
  store i64 %36, ptr %12, align 8, !tbaa !34
  call void @llvm.lifetime.start.p0(i64 8, ptr %13) #12
  store i64 0, ptr %13, align 8, !tbaa !34
  call void @llvm.lifetime.start.p0(i64 48, ptr %14) #12
  call void @llvm.lifetime.start.p0(i64 8, ptr %15) #12
  %37 = load ptr, ptr %5, align 8, !tbaa !33
  %38 = load i64, ptr %6, align 8, !tbaa !34
  %39 = load i32, ptr %7, align 4, !tbaa !55
  %40 = call noundef i64 @_ZN11duckdb_zstd28ZSTD_getFrameHeader_advancedEPNS_16ZSTD_frameHeaderEPKvmNS_13ZSTD_format_eE(ptr noundef %14, ptr noundef %37, i64 noundef %38, i32 noundef %39)
  store i64 %40, ptr %15, align 8, !tbaa !34
  %41 = load i64, ptr %15, align 8, !tbaa !34
  %42 = call noundef i32 @_ZN11duckdb_zstdL11ERR_isErrorEm(i64 noundef %41)
  %43 = icmp ne i32 %42, 0
  br i1 %43, label %44, label %46

44:                                               ; preds = %33
  %45 = load i64, ptr %15, align 8, !tbaa !34
  call void @_ZN11duckdb_zstdL23ZSTD_errorFrameSizeInfoEm(ptr dead_on_unwind writable sret(%"struct.duckdb_zstd::ZSTD_frameSizeInfo") align 8 %0, i64 noundef %45)
  store i32 1, ptr %9, align 4
  br label %51

46:                                               ; preds = %33
  %47 = load i64, ptr %15, align 8, !tbaa !34
  %48 = icmp ugt i64 %47, 0
  br i1 %48, label %49, label %50

49:                                               ; preds = %46
  call void @_ZN11duckdb_zstdL23ZSTD_errorFrameSizeInfoEm(ptr dead_on_unwind writable sret(%"struct.duckdb_zstd::ZSTD_frameSizeInfo") align 8 %0, i64 noundef -72)
  store i32 1, ptr %9, align 4
  br label %51

50:                                               ; preds = %46
  store i32 0, ptr %9, align 4
  br label %51

51:                                               ; preds = %50, %49, %44
  call void @llvm.lifetime.end.p0(i64 8, ptr %15) #12
  %52 = load i32, ptr %9, align 4
  switch i32 %52, label %134 [
    i32 0, label %53
  ]

53:                                               ; preds = %51
  %54 = getelementptr inbounds nuw %"struct.duckdb_zstd::ZSTD_frameHeader", ptr %14, i32 0, i32 4
  %55 = load i32, ptr %54, align 8, !tbaa !60
  %56 = load ptr, ptr %10, align 8, !tbaa !57
  %57 = zext i32 %55 to i64
  %58 = getelementptr inbounds nuw i8, ptr %56, i64 %57
  store ptr %58, ptr %10, align 8, !tbaa !57
  %59 = getelementptr inbounds nuw %"struct.duckdb_zstd::ZSTD_frameHeader", ptr %14, i32 0, i32 4
  %60 = load i32, ptr %59, align 8, !tbaa !60
  %61 = zext i32 %60 to i64
  %62 = load i64, ptr %12, align 8, !tbaa !34
  %63 = sub i64 %62, %61
  store i64 %63, ptr %12, align 8, !tbaa !34
  br label %64

64:                                               ; preds = %98, %53
  br label %65

65:                                               ; preds = %64
  call void @llvm.lifetime.start.p0(i64 12, ptr %16) #12
  call void @llvm.lifetime.start.p0(i64 8, ptr %17) #12
  %66 = load ptr, ptr %10, align 8, !tbaa !57
  %67 = load i64, ptr %12, align 8, !tbaa !34
  %68 = call noundef i64 @_ZN11duckdb_zstd18ZSTD_getcBlockSizeEPKvmPNS_17blockProperties_tE(ptr noundef %66, i64 noundef %67, ptr noundef %16)
  store i64 %68, ptr %17, align 8, !tbaa !34
  %69 = load i64, ptr %17, align 8, !tbaa !34
  %70 = call noundef i32 @_ZN11duckdb_zstdL11ERR_isErrorEm(i64 noundef %69)
  %71 = icmp ne i32 %70, 0
  br i1 %71, label %72, label %74

72:                                               ; preds = %65
  %73 = load i64, ptr %17, align 8, !tbaa !34
  call void @_ZN11duckdb_zstdL23ZSTD_errorFrameSizeInfoEm(ptr dead_on_unwind writable sret(%"struct.duckdb_zstd::ZSTD_frameSizeInfo") align 8 %0, i64 noundef %73)
  store i32 1, ptr %9, align 4
  br label %96

74:                                               ; preds = %65
  %75 = load i64, ptr %17, align 8, !tbaa !34
  %76 = add i64 3, %75
  %77 = load i64, ptr %12, align 8, !tbaa !34
  %78 = icmp ugt i64 %76, %77
  br i1 %78, label %79, label %80

79:                                               ; preds = %74
  call void @_ZN11duckdb_zstdL23ZSTD_errorFrameSizeInfoEm(ptr dead_on_unwind writable sret(%"struct.duckdb_zstd::ZSTD_frameSizeInfo") align 8 %0, i64 noundef -72)
  store i32 1, ptr %9, align 4
  br label %96

80:                                               ; preds = %74
  %81 = load i64, ptr %17, align 8, !tbaa !34
  %82 = add i64 3, %81
  %83 = load ptr, ptr %10, align 8, !tbaa !57
  %84 = getelementptr inbounds nuw i8, ptr %83, i64 %82
  store ptr %84, ptr %10, align 8, !tbaa !57
  %85 = load i64, ptr %17, align 8, !tbaa !34
  %86 = add i64 3, %85
  %87 = load i64, ptr %12, align 8, !tbaa !34
  %88 = sub i64 %87, %86
  store i64 %88, ptr %12, align 8, !tbaa !34
  %89 = load i64, ptr %13, align 8, !tbaa !34
  %90 = add i64 %89, 1
  store i64 %90, ptr %13, align 8, !tbaa !34
  %91 = getelementptr inbounds nuw %"struct.duckdb_zstd::blockProperties_t", ptr %16, i32 0, i32 1
  %92 = load i32, ptr %91, align 4, !tbaa !74
  %93 = icmp ne i32 %92, 0
  br i1 %93, label %94, label %95

94:                                               ; preds = %80
  store i32 3, ptr %9, align 4
  br label %96

95:                                               ; preds = %80
  store i32 0, ptr %9, align 4
  br label %96

96:                                               ; preds = %95, %94, %79, %72
  call void @llvm.lifetime.end.p0(i64 8, ptr %17) #12
  call void @llvm.lifetime.end.p0(i64 12, ptr %16) #12
  %97 = load i32, ptr %9, align 4
  switch i32 %97, label %134 [
    i32 0, label %98
    i32 3, label %99
  ]

98:                                               ; preds = %96
  br label %64, !llvm.loop !76

99:                                               ; preds = %96
  %100 = getelementptr inbounds nuw %"struct.duckdb_zstd::ZSTD_frameHeader", ptr %14, i32 0, i32 6
  %101 = load i32, ptr %100, align 8, !tbaa !64
  %102 = icmp ne i32 %101, 0
  br i1 %102, label %103, label %110

103:                                              ; preds = %99
  %104 = load i64, ptr %12, align 8, !tbaa !34
  %105 = icmp ult i64 %104, 4
  br i1 %105, label %106, label %107

106:                                              ; preds = %103
  call void @_ZN11duckdb_zstdL23ZSTD_errorFrameSizeInfoEm(ptr dead_on_unwind writable sret(%"struct.duckdb_zstd::ZSTD_frameSizeInfo") align 8 %0, i64 noundef -72)
  store i32 1, ptr %9, align 4
  br label %134

107:                                              ; preds = %103
  %108 = load ptr, ptr %10, align 8, !tbaa !57
  %109 = getelementptr inbounds i8, ptr %108, i64 4
  store ptr %109, ptr %10, align 8, !tbaa !57
  br label %110

110:                                              ; preds = %107, %99
  %111 = load i64, ptr %13, align 8, !tbaa !34
  %112 = getelementptr inbounds nuw %"struct.duckdb_zstd::ZSTD_frameSizeInfo", ptr %8, i32 0, i32 0
  store i64 %111, ptr %112, align 8, !tbaa !77
  %113 = load ptr, ptr %10, align 8, !tbaa !57
  %114 = load ptr, ptr %11, align 8, !tbaa !57
  %115 = ptrtoint ptr %113 to i64
  %116 = ptrtoint ptr %114 to i64
  %117 = sub i64 %115, %116
  %118 = getelementptr inbounds nuw %"struct.duckdb_zstd::ZSTD_frameSizeInfo", ptr %8, i32 0, i32 1
  store i64 %117, ptr %118, align 8, !tbaa !69
  %119 = getelementptr inbounds nuw %"struct.duckdb_zstd::ZSTD_frameHeader", ptr %14, i32 0, i32 0
  %120 = load i64, ptr %119, align 8, !tbaa !58
  %121 = icmp ne i64 %120, -1
  br i1 %121, label %122, label %125

122:                                              ; preds = %110
  %123 = getelementptr inbounds nuw %"struct.duckdb_zstd::ZSTD_frameHeader", ptr %14, i32 0, i32 0
  %124 = load i64, ptr %123, align 8, !tbaa !58
  br label %131

125:                                              ; preds = %110
  %126 = load i64, ptr %13, align 8, !tbaa !34
  %127 = getelementptr inbounds nuw %"struct.duckdb_zstd::ZSTD_frameHeader", ptr %14, i32 0, i32 2
  %128 = load i32, ptr %127, align 8, !tbaa !62
  %129 = zext i32 %128 to i64
  %130 = mul i64 %126, %129
  br label %131

131:                                              ; preds = %125, %122
  %132 = phi i64 [ %124, %122 ], [ %130, %125 ]
  %133 = getelementptr inbounds nuw %"struct.duckdb_zstd::ZSTD_frameSizeInfo", ptr %8, i32 0, i32 2
  store i64 %132, ptr %133, align 8, !tbaa !71
  call void @llvm.memcpy.p0.p0.i64(ptr align 8 %0, ptr align 8 %8, i64 24, i1 false), !tbaa.struct !73
  store i32 1, ptr %9, align 4
  br label %134

134:                                              ; preds = %131, %106, %96, %51
  call void @llvm.lifetime.end.p0(i64 48, ptr %14) #12
  call void @llvm.lifetime.end.p0(i64 8, ptr %13) #12
  call void @llvm.lifetime.end.p0(i64 8, ptr %12) #12
  call void @llvm.lifetime.end.p0(i64 8, ptr %11) #12
  call void @llvm.lifetime.end.p0(i64 8, ptr %10) #12
  br label %135

135:                                              ; preds = %134, %28
  call void @llvm.lifetime.end.p0(i64 24, ptr %8) #12
  ret void
}