; Function Attrs: mustprogress uwtable
define internal fastcc void @_ZN11duckdb_zstdL22ZSTD_findFrameSizeInfoEPKvmNS_13ZSTD_format_eE(ptr dead_on_unwind noalias nonnull writable writeonly align 8 captures(none) %0, ptr noundef %1, i64 noundef %2, i32 noundef %3) unnamed_addr #0 {
  %5 = alloca %"struct.duckdb_zstd::ZSTD_frameHeader", align 8
  %6 = alloca %"struct.duckdb_zstd::blockProperties_t", align 4
  %7 = icmp eq i32 %3, 0
  %8 = icmp ugt i64 %2, 7
  %or.cond = and i1 %8, %7
  br i1 %or.cond, label %9, label %17

9:                                                ; preds = %4
  %.val = load i32, ptr %1, align 1, !tbaa !55
  %10 = and i32 %.val, -16
  %11 = icmp eq i32 %10, 407710288
  br i1 %11, label %_ZN11duckdb_zstdL22readSkippableFrameSizeEPKvm.exit, label %17

_ZN11duckdb_zstdL22readSkippableFrameSizeEPKvm.exit: ; preds = %9
  %12 = getelementptr inbounds nuw i8, ptr %1, i64 4
  %.val.i = load i32, ptr %12, align 1, !tbaa !55
  %13 = icmp ugt i32 %.val.i, -9
  %14 = zext i32 %.val.i to i64
  %15 = add nuw nsw i64 %14, 8
  %16 = icmp ugt i64 %15, %2
  %..i = select i1 %16, i64 -72, i64 %15
  %.0.i = select i1 %13, i64 -14, i64 %..i
  store i64 0, ptr %0, align 8, !tbaa !57
  %.sroa.6.0..sroa_idx = getelementptr inbounds nuw i8, ptr %0, i64 8
  store i64 %.0.i, ptr %.sroa.6.0..sroa_idx, align 8, !tbaa !57
  %.sroa.8.0..sroa_idx = getelementptr inbounds nuw i8, ptr %0, i64 16
  store i64 0, ptr %.sroa.8.0..sroa_idx, align 8, !tbaa !73
  br label %70

17:                                               ; preds = %9, %4
  call void @llvm.lifetime.start.p0(i64 48, ptr nonnull %5) #17
  %18 = call noundef i64 @_ZN11duckdb_zstd28ZSTD_getFrameHeader_advancedEPNS_16ZSTD_frameHeaderEPKvmNS_13ZSTD_format_eE(ptr noundef nonnull %5, ptr noundef %1, i64 noundef %2, i32 noundef %3)
  %19 = icmp ult i64 %18, -119
  br i1 %19, label %23, label %20

20:                                               ; preds = %17
  %21 = getelementptr inbounds nuw i8, ptr %0, i64 8
  store i64 %18, ptr %21, align 8, !tbaa !69, !alias.scope !74
  %22 = getelementptr inbounds nuw i8, ptr %0, i64 16
  store i64 -2, ptr %22, align 8, !tbaa !71, !alias.scope !74
  br label %.critedge

23:                                               ; preds = %17
  %.not51 = icmp eq i64 %18, 0
  br i1 %.not51, label %27, label %24

24:                                               ; preds = %23
  %25 = getelementptr inbounds nuw i8, ptr %0, i64 8
  store i64 -72, ptr %25, align 8, !tbaa !69, !alias.scope !77
  %26 = getelementptr inbounds nuw i8, ptr %0, i64 16
  store i64 -2, ptr %26, align 8, !tbaa !71, !alias.scope !77
  br label %.critedge

27:                                               ; preds = %23
  %28 = getelementptr inbounds nuw i8, ptr %5, i64 24
  %29 = load i32, ptr %28, align 8, !tbaa !60
  %30 = zext i32 %29 to i64
  %31 = getelementptr inbounds nuw i8, ptr %1, i64 %30
  %32 = sub i64 %2, %30
  call void @llvm.lifetime.start.p0(i64 12, ptr nonnull %6) #17
  %33 = call noundef i64 @_ZN11duckdb_zstd18ZSTD_getcBlockSizeEPKvmPNS_17blockProperties_tE(ptr noundef %31, i64 noundef %32, ptr noundef nonnull %6)
  %34 = icmp ult i64 %33, -119
  br i1 %34, label %.lr.ph, label %.thread

.lr.ph:                                           ; preds = %27
  %35 = getelementptr inbounds nuw i8, ptr %6, i64 4
  br label %36

36:                                               ; preds = %.lr.ph, %47
  %37 = phi i64 [ %33, %.lr.ph ], [ %48, %47 ]
  %.075 = phi i64 [ 0, %.lr.ph ], [ %43, %47 ]
  %.04274 = phi i64 [ %32, %.lr.ph ], [ %42, %47 ]
  %.04473 = phi ptr [ %31, %.lr.ph ], [ %41, %47 ]
  %38 = add nuw i64 %37, 3
  %39 = icmp ugt i64 %38, %.04274
  br i1 %39, label %.thread, label %40

40:                                               ; preds = %36
  %41 = getelementptr inbounds nuw i8, ptr %.04473, i64 %38
  %42 = sub nuw i64 %.04274, %38
  %43 = add i64 %.075, 1
  %44 = load i32, ptr %35, align 4, !tbaa !80
  %.not53 = icmp eq i32 %44, 0
  call void @llvm.lifetime.end.p0(i64 12, ptr nonnull %6) #17
  br i1 %.not53, label %47, label %50

.thread:                                          ; preds = %36, %47, %27
  %.lcssa.sink = phi i64 [ %33, %27 ], [ %48, %47 ], [ -72, %36 ]
  %45 = getelementptr inbounds nuw i8, ptr %0, i64 8
  store i64 %.lcssa.sink, ptr %45, align 8, !tbaa !69
  %46 = getelementptr inbounds nuw i8, ptr %0, i64 16
  store i64 -2, ptr %46, align 8, !tbaa !71
  call void @llvm.lifetime.end.p0(i64 12, ptr nonnull %6) #17
  br label %.critedge

47:                                               ; preds = %40
  call void @llvm.lifetime.start.p0(i64 12, ptr nonnull %6) #17
  %48 = call noundef i64 @_ZN11duckdb_zstd18ZSTD_getcBlockSizeEPKvmPNS_17blockProperties_tE(ptr noundef nonnull %41, i64 noundef %42, ptr noundef nonnull %6)
  %49 = icmp ult i64 %48, -119
  br i1 %49, label %36, label %.thread

50:                                               ; preds = %40
  %51 = getelementptr inbounds nuw i8, ptr %5, i64 32
  %52 = load i32, ptr %51, align 8, !tbaa !66
  %.not54 = icmp eq i32 %52, 0
  br i1 %.not54, label %60, label %53

53:                                               ; preds = %50
  %54 = icmp ult i64 %42, 4
  br i1 %54, label %55, label %58

55:                                               ; preds = %53
  %56 = getelementptr inbounds nuw i8, ptr %0, i64 8
  store i64 -72, ptr %56, align 8, !tbaa !69, !alias.scope !82
  %57 = getelementptr inbounds nuw i8, ptr %0, i64 16
  store i64 -2, ptr %57, align 8, !tbaa !71, !alias.scope !82
  br label %.critedge

58:                                               ; preds = %53
  %59 = getelementptr inbounds nuw i8, ptr %41, i64 4
  br label %60

60:                                               ; preds = %58, %50
  %.2 = phi ptr [ %59, %58 ], [ %41, %50 ]
  %61 = ptrtoint ptr %.2 to i64
  %62 = ptrtoint ptr %1 to i64
  %63 = sub i64 %61, %62
  %64 = load i64, ptr %5, align 8, !tbaa !58
  %.not55 = icmp eq i64 %64, -1
  %65 = getelementptr inbounds nuw i8, ptr %5, i64 16
  %66 = load i32, ptr %65, align 8
  %67 = zext i32 %66 to i64
  %68 = mul i64 %43, %67
  %69 = select i1 %.not55, i64 %68, i64 %64
  store i64 %43, ptr %0, align 8, !tbaa !57
  %.sroa.6.0..sroa_idx26 = getelementptr inbounds nuw i8, ptr %0, i64 8
  store i64 %63, ptr %.sroa.6.0..sroa_idx26, align 8, !tbaa !57
  %.sroa.8.0..sroa_idx28 = getelementptr inbounds nuw i8, ptr %0, i64 16
  store i64 %69, ptr %.sroa.8.0..sroa_idx28, align 8, !tbaa !73
  br label %.critedge

.critedge:                                        ; preds = %.thread, %20, %24, %60, %55
  call void @llvm.lifetime.end.p0(i64 48, ptr nonnull %5) #17
  br label %70

70:                                               ; preds = %.critedge, %_ZN11duckdb_zstdL22readSkippableFrameSizeEPKvm.exit
  ret void
}